; Function Attrs: nounwind uwtable
define dso_local void @initStringInfo(ptr noundef writeonly captures(none) initializes((0, 20)) %0) local_unnamed_addr #0 {
  %2 = tail call ptr @palloc(i64 noundef 1024) #12
  store ptr %2, ptr %0, align 8
  %3 = getelementptr inbounds nuw i8, ptr %0, i64 12
  store i32 1024, ptr %3, align 4
  store i8 0, ptr %2, align 1
  %4 = getelementptr inbounds nuw i8, ptr %0, i64 8
  store i32 0, ptr %4, align 8
  %5 = getelementptr inbounds nuw i8, ptr %0, i64 16
  store i32 0, ptr %5, align 8
  ret void
}